target datalayout = "e-m:e-p270:32:32-p271:32:32-p272:64:64-i64:64-i128:128-f80:128-n8:16:32:64-S128"
target triple = "x86_64-pc-linux-gnu"

%class.PreservedMarksSet = type { i8, i32, ptr }
%class.RestorePreservedMarksTask = type { %class.WorkerTask.base, ptr, %class.SequentialSubTasksDone, i64 }
%class.WorkerTask.base = type <{ ptr, ptr, i32 }>
%class.SequentialSubTasksDone = type { i32, i32 }
%class.WorkerTask = type <{ ptr, ptr, i32, [4 x i8] }>

@.str = private unnamed_addr constant [24 x i8] c"Restore Preserved Marks\00", align 1
@_ZTV25RestorePreservedMarksTask = linkonce_odr hidden unnamed_addr constant { [3 x ptr] } { [3 x ptr] [ptr null, ptr null, ptr @_ZN25RestorePreservedMarksTask4workEj] }, comdat, align 8
@_ZTV10WorkerTask = linkonce_odr hidden unnamed_addr constant { [3 x ptr] } { [3 x ptr] [ptr null, ptr null, ptr @__cxa_pure_virtual] }, comdat, align 8

; Function Attrs: mustprogress nounwind uwtable
define linkonce_odr hidden void @_ZN22SequentialSubTasksDoneC2Ej(ptr noundef nonnull align 4 dereferenceable(8) %0, i32 noundef %1) unnamed_addr #1 comdat align 2 {
  %3 = alloca ptr, align 8
  %4 = alloca i32, align 4
  store ptr %0, ptr %3, align 8
  store i32 %1, ptr %4, align 4
  %5 = load ptr, ptr %3, align 8
  %6 = getelementptr inbounds %class.SequentialSubTasksDone, ptr %5, i32 0, i32 0
  %7 = load i32, ptr %4, align 4
  store i32 %7, ptr %6, align 4
  %8 = getelementptr inbounds %class.SequentialSubTasksDone, ptr %5, i32 0, i32 1
  store volatile i32 0, ptr %8, align 4
  ret void
}

; Function Attrs: mustprogress nounwind uwtable
define linkonce_odr hidden noundef i32 @_ZNK17PreservedMarksSet3numEv(ptr noundef nonnull align 8 dereferenceable(16) %0) #1 comdat align 2 {
  %2 = alloca ptr, align 8
  store ptr %0, ptr %2, align 8
  %3 = load ptr, ptr %2, align 8
  %4 = getelementptr inbounds %class.PreservedMarksSet, ptr %3, i32 0, i32 1
  %5 = load i32, ptr %4, align 4
  ret i32 %5
}

; Function Attrs: mustprogress nounwind uwtable
define linkonce_odr hidden void @_ZN10WorkerTaskC2EPKc(ptr noundef nonnull align 8 dereferenceable(20) %0, ptr noundef %1) unnamed_addr #1 comdat align 2 {
  %3 = alloca ptr, align 8
  %4 = alloca ptr, align 8
  store ptr %0, ptr %3, align 8
  store ptr %1, ptr %4, align 8
  %5 = load ptr, ptr %3, align 8
  store ptr getelementptr inbounds inrange(-16, 8) ({ [3 x ptr] }, ptr @_ZTV10WorkerTask, i32 0, i32 0, i32 2), ptr %5, align 8
  %6 = getelementptr inbounds %class.WorkerTask, ptr %5, i32 0, i32 1
  %7 = load ptr, ptr %4, align 8
  store ptr %7, ptr %6, align 8
  %8 = getelementptr inbounds %class.WorkerTask, ptr %5, i32 0, i32 2
  %9 = call noundef i32 @_ZN4GCId20current_or_undefinedEv()
  store i32 %9, ptr %8, align 8
  ret void
}

; Function Attrs: mustprogress nounwind uwtable
define linkonce_odr hidden void @_ZN25RestorePreservedMarksTaskC2EP17PreservedMarksSet(ptr noundef nonnull align 8 dereferenceable(48) %0, ptr noundef %1) unnamed_addr #1 comdat align 2 {
  %3 = alloca ptr, align 8
  %4 = alloca ptr, align 8
  store ptr %0, ptr %3, align 8
  store ptr %1, ptr %4, align 8
  %5 = load ptr, ptr %3, align 8
  call void @_ZN10WorkerTaskC2EPKc(ptr noundef nonnull align 8 dereferenceable(20) %5, ptr noundef @.str)
  store ptr getelementptr inbounds inrange(-16, 8) ({ [3 x ptr] }, ptr @_ZTV25RestorePreservedMarksTask, i32 0, i32 0, i32 2), ptr %5, align 8
  %6 = getelementptr inbounds %class.RestorePreservedMarksTask, ptr %5, i32 0, i32 1
  %7 = load ptr, ptr %4, align 8
  store ptr %7, ptr %6, align 8
  %8 = getelementptr inbounds %class.RestorePreservedMarksTask, ptr %5, i32 0, i32 2
  %9 = load ptr, ptr %4, align 8
  %10 = call noundef i32 @_ZNK17PreservedMarksSet3numEv(ptr noundef nonnull align 8 dereferenceable(16) %9)
  call void @_ZN22SequentialSubTasksDoneC2Ej(ptr noundef nonnull align 4 dereferenceable(8) %8, i32 noundef %10)
  %11 = getelementptr inbounds %class.RestorePreservedMarksTask, ptr %5, i32 0, i32 3
  store volatile i64 0, ptr %11, align 8
  ret void
}

; Function Attrs: mustprogress nounwind uwtable
define hidden noundef ptr @_ZN17PreservedMarksSet11create_taskEv(ptr noundef nonnull align 8 dereferenceable(16) %0) #1 align 2 {
  %2 = alloca i64, align 8
  %3 = alloca i8, align 1
  %4 = alloca i64, align 8
  %5 = alloca ptr, align 8
  store ptr %0, ptr %5, align 8
  %6 = load ptr, ptr %5, align 8
  store i64 48, ptr %4, align 8
  %7 = load i64, ptr %4, align 8
  store i64 %7, ptr %2, align 8
  store i8 9, ptr %3, align 1
  %8 = load i64, ptr %2, align 8
  %9 = load i8, ptr %3, align 1
  %10 = call noundef ptr @_Z12AllocateHeapm8MEMFLAGSN17AllocFailStrategy13AllocFailEnumE(i64 noundef %8, i8 noundef zeroext %9, i32 noundef 0) #5
  call void @_ZN25RestorePreservedMarksTaskC2EP17PreservedMarksSet(ptr noundef nonnull align 8 dereferenceable(48) %10, ptr noundef %6)
  ret ptr %10
}