; Function Attrs: mustprogress nounwind uwtable
define hidden noundef ptr @_ZN17PreservedMarksSet11create_taskEv(ptr noundef nonnull align 8 dereferenceable(16) %0) local_unnamed_addr #0 align 2 {
  %2 = tail call noundef ptr @_Z12AllocateHeapm8MEMFLAGSN17AllocFailStrategy13AllocFailEnumE(i64 noundef 48, i8 noundef zeroext 9, i32 noundef 0) #7
  store ptr getelementptr inbounds inrange(-16, 8) (i8, ptr @_ZTV10WorkerTask, i64 16), ptr %2, align 8
  %3 = getelementptr inbounds i8, ptr %2, i64 8
  store ptr @.str, ptr %3, align 8
  %4 = getelementptr inbounds i8, ptr %2, i64 16
  %5 = tail call noundef i32 @_ZN4GCId20current_or_undefinedEv() #7
  store i32 %5, ptr %4, align 8
  store ptr getelementptr inbounds inrange(-16, 8) (i8, ptr @_ZTV25RestorePreservedMarksTask, i64 16), ptr %2, align 8
  %6 = getelementptr inbounds i8, ptr %2, i64 24
  store ptr %0, ptr %6, align 8
  %7 = getelementptr inbounds i8, ptr %2, i64 32
  %8 = getelementptr inbounds i8, ptr %0, i64 4
  %9 = load i32, ptr %8, align 4
  store i32 %9, ptr %7, align 4
  %10 = getelementptr inbounds i8, ptr %2, i64 36
  store volatile i32 0, ptr %10, align 4
  %11 = getelementptr inbounds i8, ptr %2, i64 40
  store volatile i64 0, ptr %11, align 8
  ret ptr %2
}